; ModuleID = 'source-C-CXX/61/2069.c'
source_filename = "source-C-CXX/61/2069.c"
target datalayout = "e-m:e-p270:32:32-p271:32:32-p272:64:64-i64:64-f80:128-n8:16:32:64-S128"
target triple = "x86_64-pc-linux-gnu"

%struct._IO_FILE = type { i32, i8*, i8*, i8*, i8*, i8*, i8*, i8*, i8*, i8*, i8*, i8*, %struct._IO_marker*, %struct._IO_FILE*, i32, i32, i64, i16, i8, [1 x i8], i8*, i64, %struct._IO_codecvt*, %struct._IO_wide_data*, %struct._IO_FILE*, i8*, i64, i32, [20 x i8] }
%struct._IO_marker = type opaque
%struct._IO_codecvt = type opaque
%struct._IO_wide_data = type opaque

@stdin = external local_unnamed_addr global %struct._IO_FILE*, align 8

; Function Attrs: nofree nounwind sspstrong uwtable
define dso_local i32 @main() local_unnamed_addr #0 {
  %1 = alloca [100 x i8], align 16
  %2 = getelementptr inbounds [100 x i8], [100 x i8]* %1, i64 0, i64 0
  call void @llvm.lifetime.start.p0i8(i64 100, i8* nonnull %2) #4
  br label %3

3:                                                ; preds = %0, %11
  %4 = phi i64 [ 0, %0 ], [ %12, %11 ]
  %5 = load %struct._IO_FILE*, %struct._IO_FILE** @stdin, align 8, !tbaa !5
  %6 = tail call i32 @getc(%struct._IO_FILE* %5) #4
  %7 = trunc i32 %6 to i8
  %8 = getelementptr inbounds [100 x i8], [100 x i8]* %1, i64 0, i64 %4
  store i8 %7, i8* %8, align 1, !tbaa !9
  %9 = and i32 %6, 255
  %10 = icmp eq i32 %9, 10
  br i1 %10, label %14, label %11

11:                                               ; preds = %3
  %12 = add nuw nsw i64 %4, 1
  %13 = icmp eq i64 %12, 100
  br i1 %13, label %17, label %3, !llvm.loop !10

14:                                               ; preds = %3
  %15 = trunc i64 %4 to i32
  %16 = icmp eq i32 %15, 0
  br i1 %16, label %35, label %17

17:                                               ; preds = %11, %14
  %18 = phi i64 [ %4, %14 ], [ 100, %11 ]
  %19 = and i64 %18, 4294967295
  br label %20

20:                                               ; preds = %17, %32
  %21 = phi i64 [ 0, %17 ], [ %33, %32 ]
  %22 = phi i32 [ 0, %17 ], [ %27, %32 ]
  %23 = getelementptr inbounds [100 x i8], [100 x i8]* %1, i64 0, i64 %21
  %24 = load i8, i8* %23, align 1, !tbaa !9
  %25 = icmp eq i8 %24, 32
  %26 = add nsw i32 %22, 1
  %27 = select i1 %25, i32 %26, i32 0
  %28 = icmp slt i32 %27, 2
  br i1 %28, label %29, label %32

29:                                               ; preds = %20
  %30 = sext i8 %24 to i32
  %31 = tail call i32 @putchar(i32 %30)
  br label %32

32:                                               ; preds = %20, %29
  %33 = add nuw nsw i64 %21, 1
  %34 = icmp eq i64 %33, %19
  br i1 %34, label %35, label %20, !llvm.loop !12

35:                                               ; preds = %32, %14
  call void @llvm.lifetime.end.p0i8(i64 100, i8* nonnull %2) #4
  ret i32 0
}

; Function Attrs: argmemonly mustprogress nofree nosync nounwind willreturn
declare void @llvm.lifetime.start.p0i8(i64 immarg, i8* nocapture) #1

; Function Attrs: argmemonly mustprogress nofree nosync nounwind willreturn
declare void @llvm.lifetime.end.p0i8(i64 immarg, i8* nocapture) #1

; Function Attrs: nofree nounwind
declare noundef i32 @getc(%struct._IO_FILE* nocapture noundef) local_unnamed_addr #2

; Function Attrs: nofree nounwind
declare noundef i32 @putchar(i32 noundef) local_unnamed_addr #3


!llvm.module.flags = !{!0, !1, !2, !3}
!llvm.ident = !{!4}

!0 = !{i32 1, !"wchar_size", i32 4}
!1 = !{i32 7, !"PIC Level", i32 2}
!2 = !{i32 7, !"PIE Level", i32 2}
!3 = !{i32 7, !"uwtable", i32 1}
!4 = !{!"clang version 13.0.0"}
!5 = !{!6, !6, i64 0}
!6 = !{!"any pointer", !7, i64 0}
!7 = !{!"omnipotent char", !8, i64 0}
!8 = !{!"Simple C/C++ TBAA"}
!9 = !{!7, !7, i64 0}
!10 = distinct !{!10, !11}
!11 = !{!"llvm.loop.mustprogress"}
!12 = distinct !{!12, !11}
